target datalayout = "e-m:e-p270:32:32-p271:32:32-p272:64:64-i64:64-i128:128-f80:128-n8:16:32:64-S128"
target triple = "x86_64-pc-linux-gnu"

%struct.AVFilterContext = type { ptr, ptr, ptr, ptr, ptr, i32, ptr, ptr, i32, ptr, ptr, i32, i32, ptr, ptr, ptr, ptr, i32, ptr, i32, i32 }
%struct.FadeContext = type { ptr, i32, i32, i32, i32, i32, i32, i32, i32, i32, i32, i32, i8, i8, [4 x i8], i32, i32, i64, i64, i64, i64, i32, [4 x i8], i32, ptr, ptr, ptr }
%struct.AVChannelLayout = type { i32, i32, %union.anon.1, ptr }
%union.anon.1 = type { i64 }
%struct.AVRational = type { i32, i32 }
%struct.AVFrame = type { [8 x ptr], [8 x i32], ptr, i32, i32, i32, i32, i32, %struct.AVRational, i64, i64, %struct.AVRational, i32, ptr, i32, i32, [8 x ptr], ptr, i32, ptr, i32, i32, i32, i32, i32, i32, i32, i64, ptr, i32, ptr, ptr, i64, i64, i64, i64, ptr, %struct.AVChannelLayout, i64 }

; Function Attrs: nounwind uwtable
define internal i32 @filter_slice_chroma16(ptr noundef %0, ptr noundef %1, i32 noundef %2, i32 noundef %3) #1 {
  %5 = alloca ptr, align 8
  %6 = alloca ptr, align 8
  %7 = alloca i32, align 4
  %8 = alloca i32, align 4
  %9 = alloca ptr, align 8
  %10 = alloca ptr, align 8
  %11 = alloca i32, align 4
  %12 = alloca i32, align 4
  %13 = alloca i32, align 4
  %14 = alloca i32, align 4
  %15 = alloca i32, align 4
  %16 = alloca i32, align 4
  %17 = alloca i32, align 4
  %18 = alloca i32, align 4
  %19 = alloca i32, align 4
  %20 = alloca ptr, align 8
  store ptr %0, ptr %5, align 8, !tbaa !4
  store ptr %1, ptr %6, align 8, !tbaa !37
  store i32 %2, ptr %7, align 4, !tbaa !88
  store i32 %3, ptr %8, align 4, !tbaa !88
  call void @llvm.lifetime.start.p0(i64 8, ptr %9) #11
  %21 = load ptr, ptr %5, align 8, !tbaa !4
  %22 = getelementptr inbounds nuw %struct.AVFilterContext, ptr %21, i32 0, i32 9
  %23 = load ptr, ptr %22, align 8, !tbaa !9
  store ptr %23, ptr %9, align 8, !tbaa !22
  call void @llvm.lifetime.start.p0(i64 8, ptr %10) #11
  %24 = load ptr, ptr %6, align 8, !tbaa !37
  store ptr %24, ptr %10, align 8, !tbaa !40
  call void @llvm.lifetime.start.p0(i64 4, ptr %11) #11
  call void @llvm.lifetime.start.p0(i64 4, ptr %12) #11
  call void @llvm.lifetime.start.p0(i64 4, ptr %13) #11
  call void @llvm.lifetime.start.p0(i64 4, ptr %14) #11
  %25 = load ptr, ptr %9, align 8, !tbaa !22
  %26 = getelementptr inbounds nuw %struct.FadeContext, ptr %25, i32 0, i32 6
  %27 = load i32, ptr %26, align 4, !tbaa !74
  %28 = call i1 @llvm.is.constant.i32(i32 %27)
  br i1 %28, label %39, label %29

29:                                               ; preds = %4
  %30 = load ptr, ptr %10, align 8, !tbaa !40
  %31 = getelementptr inbounds nuw %struct.AVFrame, ptr %30, i32 0, i32 3
  %32 = load i32, ptr %31, align 8, !tbaa !89
  %33 = sub nsw i32 0, %32
  %34 = load ptr, ptr %9, align 8, !tbaa !22
  %35 = getelementptr inbounds nuw %struct.FadeContext, ptr %34, i32 0, i32 6
  %36 = load i32, ptr %35, align 4, !tbaa !74
  %37 = ashr i32 %33, %36
  %38 = sub nsw i32 0, %37
  br label %53

39:                                               ; preds = %4
  %40 = load ptr, ptr %10, align 8, !tbaa !40
  %41 = getelementptr inbounds nuw %struct.AVFrame, ptr %40, i32 0, i32 3
  %42 = load i32, ptr %41, align 8, !tbaa !89
  %43 = load ptr, ptr %9, align 8, !tbaa !22
  %44 = getelementptr inbounds nuw %struct.FadeContext, ptr %43, i32 0, i32 6
  %45 = load i32, ptr %44, align 4, !tbaa !74
  %46 = shl i32 1, %45
  %47 = add nsw i32 %42, %46
  %48 = sub nsw i32 %47, 1
  %49 = load ptr, ptr %9, align 8, !tbaa !22
  %50 = getelementptr inbounds nuw %struct.FadeContext, ptr %49, i32 0, i32 6
  %51 = load i32, ptr %50, align 4, !tbaa !74
  %52 = ashr i32 %48, %51
  br label %53

53:                                               ; preds = %39, %29
  %54 = phi i32 [ %38, %29 ], [ %52, %39 ]
  store i32 %54, ptr %14, align 4, !tbaa !88
  call void @llvm.lifetime.start.p0(i64 4, ptr %15) #11
  %55 = load ptr, ptr %9, align 8, !tbaa !22
  %56 = getelementptr inbounds nuw %struct.FadeContext, ptr %55, i32 0, i32 7
  %57 = load i32, ptr %56, align 8, !tbaa !76
  %58 = call i1 @llvm.is.constant.i32(i32 %57)
  br i1 %58, label %69, label %59

59:                                               ; preds = %53
  %60 = load ptr, ptr %10, align 8, !tbaa !40
  %61 = getelementptr inbounds nuw %struct.AVFrame, ptr %60, i32 0, i32 4
  %62 = load i32, ptr %61, align 4, !tbaa !63
  %63 = sub nsw i32 0, %62
  %64 = load ptr, ptr %9, align 8, !tbaa !22
  %65 = getelementptr inbounds nuw %struct.FadeContext, ptr %64, i32 0, i32 7
  %66 = load i32, ptr %65, align 8, !tbaa !76
  %67 = ashr i32 %63, %66
  %68 = sub nsw i32 0, %67
  br label %83

69:                                               ; preds = %53
  %70 = load ptr, ptr %10, align 8, !tbaa !40
  %71 = getelementptr inbounds nuw %struct.AVFrame, ptr %70, i32 0, i32 4
  %72 = load i32, ptr %71, align 4, !tbaa !63
  %73 = load ptr, ptr %9, align 8, !tbaa !22
  %74 = getelementptr inbounds nuw %struct.FadeContext, ptr %73, i32 0, i32 7
  %75 = load i32, ptr %74, align 8, !tbaa !76
  %76 = shl i32 1, %75
  %77 = add nsw i32 %72, %76
  %78 = sub nsw i32 %77, 1
  %79 = load ptr, ptr %9, align 8, !tbaa !22
  %80 = getelementptr inbounds nuw %struct.FadeContext, ptr %79, i32 0, i32 7
  %81 = load i32, ptr %80, align 8, !tbaa !76
  %82 = ashr i32 %78, %81
  br label %83

83:                                               ; preds = %69, %59
  %84 = phi i32 [ %68, %59 ], [ %82, %69 ]
  store i32 %84, ptr %15, align 4, !tbaa !88
  call void @llvm.lifetime.start.p0(i64 4, ptr %16) #11
  %85 = load ptr, ptr %9, align 8, !tbaa !22
  %86 = getelementptr inbounds nuw %struct.FadeContext, ptr %85, i32 0, i32 9
  %87 = load i32, ptr %86, align 8, !tbaa !79
  %88 = sub nsw i32 %87, 1
  %89 = shl i32 1, %88
  store i32 %89, ptr %16, align 4, !tbaa !88
  call void @llvm.lifetime.start.p0(i64 4, ptr %17) #11
  %90 = load i32, ptr %16, align 4, !tbaa !88
  %91 = shl i32 %90, 1
  %92 = add nsw i32 %91, 1
  %93 = shl i32 %92, 15
  store i32 %93, ptr %17, align 4, !tbaa !88
  call void @llvm.lifetime.start.p0(i64 4, ptr %18) #11
  %94 = load i32, ptr %15, align 4, !tbaa !88
  %95 = load i32, ptr %7, align 4, !tbaa !88
  %96 = mul nsw i32 %94, %95
  %97 = load i32, ptr %8, align 4, !tbaa !88
  %98 = sdiv i32 %96, %97
  store i32 %98, ptr %18, align 4, !tbaa !88
  call void @llvm.lifetime.start.p0(i64 4, ptr %19) #11
  %99 = load i32, ptr %15, align 4, !tbaa !88
  %100 = load i32, ptr %7, align 4, !tbaa !88
  %101 = add nsw i32 %100, 1
  %102 = mul nsw i32 %99, %101
  %103 = load i32, ptr %8, align 4, !tbaa !88
  %104 = sdiv i32 %102, %103
  %105 = load ptr, ptr %10, align 8, !tbaa !40
  %106 = getelementptr inbounds nuw %struct.AVFrame, ptr %105, i32 0, i32 4
  %107 = load i32, ptr %106, align 4, !tbaa !63
  %108 = icmp sgt i32 %104, %107
  br i1 %108, label %109, label %113

109:                                              ; preds = %83
  %110 = load ptr, ptr %10, align 8, !tbaa !40
  %111 = getelementptr inbounds nuw %struct.AVFrame, ptr %110, i32 0, i32 4
  %112 = load i32, ptr %111, align 4, !tbaa !63
  br label %120

113:                                              ; preds = %83
  %114 = load i32, ptr %15, align 4, !tbaa !88
  %115 = load i32, ptr %7, align 4, !tbaa !88
  %116 = add nsw i32 %115, 1
  %117 = mul nsw i32 %114, %116
  %118 = load i32, ptr %8, align 4, !tbaa !88
  %119 = sdiv i32 %117, %118
  br label %120

120:                                              ; preds = %113, %109
  %121 = phi i32 [ %112, %109 ], [ %119, %113 ]
  store i32 %121, ptr %19, align 4, !tbaa !88
  store i32 1, ptr %13, align 4, !tbaa !88
  br label %122

122:                                              ; preds = %177, %120
  %123 = load i32, ptr %13, align 4, !tbaa !88
  %124 = icmp slt i32 %123, 3
  br i1 %124, label %125, label %180

125:                                              ; preds = %122
  %126 = load i32, ptr %18, align 4, !tbaa !88
  store i32 %126, ptr %11, align 4, !tbaa !88
  br label %127

127:                                              ; preds = %173, %125
  %128 = load i32, ptr %11, align 4, !tbaa !88
  %129 = load i32, ptr %19, align 4, !tbaa !88
  %130 = icmp slt i32 %128, %129
  br i1 %130, label %131, label %176

131:                                              ; preds = %127
  call void @llvm.lifetime.start.p0(i64 8, ptr %20) #11
  %132 = load ptr, ptr %10, align 8, !tbaa !40
  %133 = getelementptr inbounds nuw %struct.AVFrame, ptr %132, i32 0, i32 0
  %134 = load i32, ptr %13, align 4, !tbaa !88
  %135 = sext i32 %134 to i64
  %136 = getelementptr inbounds [8 x ptr], ptr %133, i64 0, i64 %135
  %137 = load ptr, ptr %136, align 8, !tbaa !66
  %138 = load i32, ptr %11, align 4, !tbaa !88
  %139 = load ptr, ptr %10, align 8, !tbaa !40
  %140 = getelementptr inbounds nuw %struct.AVFrame, ptr %139, i32 0, i32 1
  %141 = load i32, ptr %13, align 4, !tbaa !88
  %142 = sext i32 %141 to i64
  %143 = getelementptr inbounds [8 x i32], ptr %140, i64 0, i64 %142
  %144 = load i32, ptr %143, align 4, !tbaa !88
  %145 = mul nsw i32 %138, %144
  %146 = sext i32 %145 to i64
  %147 = getelementptr inbounds i8, ptr %137, i64 %146
  store ptr %147, ptr %20, align 8, !tbaa !99
  store i32 0, ptr %12, align 4, !tbaa !88
  br label %148

148:                                              ; preds = %169, %131
  %149 = load i32, ptr %12, align 4, !tbaa !88
  %150 = load i32, ptr %14, align 4, !tbaa !88
  %151 = icmp slt i32 %149, %150
  br i1 %151, label %152, label %172

152:                                              ; preds = %148
  %153 = load ptr, ptr %20, align 8, !tbaa !99
  %154 = load i16, ptr %153, align 2, !tbaa !101
  %155 = zext i16 %154 to i32
  %156 = load i32, ptr %16, align 4, !tbaa !88
  %157 = sub nsw i32 %155, %156
  %158 = load ptr, ptr %9, align 8, !tbaa !22
  %159 = getelementptr inbounds nuw %struct.FadeContext, ptr %158, i32 0, i32 2
  %160 = load i32, ptr %159, align 4, !tbaa !52
  %161 = mul nsw i32 %157, %160
  %162 = load i32, ptr %17, align 4, !tbaa !88
  %163 = add nsw i32 %161, %162
  %164 = ashr i32 %163, 16
  %165 = trunc i32 %164 to i16
  %166 = load ptr, ptr %20, align 8, !tbaa !99
  store i16 %165, ptr %166, align 2, !tbaa !101
  %167 = load ptr, ptr %20, align 8, !tbaa !99
  %168 = getelementptr inbounds nuw i16, ptr %167, i32 1
  store ptr %168, ptr %20, align 8, !tbaa !99
  br label %169

169:                                              ; preds = %152
  %170 = load i32, ptr %12, align 4, !tbaa !88
  %171 = add nsw i32 %170, 1
  store i32 %171, ptr %12, align 4, !tbaa !88
  br label %148, !llvm.loop !109

172:                                              ; preds = %148
  call void @llvm.lifetime.end.p0(i64 8, ptr %20) #11
  br label %173

173:                                              ; preds = %172
  %174 = load i32, ptr %11, align 4, !tbaa !88
  %175 = add nsw i32 %174, 1
  store i32 %175, ptr %11, align 4, !tbaa !88
  br label %127, !llvm.loop !110

176:                                              ; preds = %127
  br label %177

177:                                              ; preds = %176
  %178 = load i32, ptr %13, align 4, !tbaa !88
  %179 = add nsw i32 %178, 1
  store i32 %179, ptr %13, align 4, !tbaa !88
  br label %122, !llvm.loop !111

180:                                              ; preds = %122
  call void @llvm.lifetime.end.p0(i64 4, ptr %19) #11
  call void @llvm.lifetime.end.p0(i64 4, ptr %18) #11
  call void @llvm.lifetime.end.p0(i64 4, ptr %17) #11
  call void @llvm.lifetime.end.p0(i64 4, ptr %16) #11
  call void @llvm.lifetime.end.p0(i64 4, ptr %15) #11
  call void @llvm.lifetime.end.p0(i64 4, ptr %14) #11
  call void @llvm.lifetime.end.p0(i64 4, ptr %13) #11
  call void @llvm.lifetime.end.p0(i64 4, ptr %12) #11
  call void @llvm.lifetime.end.p0(i64 4, ptr %11) #11
  call void @llvm.lifetime.end.p0(i64 8, ptr %10) #11
  call void @llvm.lifetime.end.p0(i64 8, ptr %9) #11
  ret i32 0
}