; Function Attrs: nofree norecurse nosync nounwind memory(readwrite, inaccessiblemem: none) uwtable
define internal noundef i32 @filter_slice_chroma16(ptr noundef readonly captures(none) %0, ptr noundef readonly captures(none) %1, i32 noundef %2, i32 noundef %3) #6 {
  %5 = getelementptr inbounds nuw i8, ptr %0, i64 72
  %6 = load ptr, ptr %5, align 8, !tbaa !4
  %7 = getelementptr inbounds nuw i8, ptr %1, i64 104
  %8 = load i32, ptr %7, align 8, !tbaa !74
  %9 = getelementptr inbounds nuw i8, ptr %6, i64 28
  %10 = load i32, ptr %9, align 4, !tbaa !62
  %11 = sub nsw i32 0, %8
  %12 = ashr i32 %11, %10
  %13 = sub nsw i32 0, %12
  %14 = getelementptr inbounds nuw i8, ptr %1, i64 108
  %15 = load i32, ptr %14, align 4, !tbaa !53
  %16 = sub nsw i32 0, %15
  %17 = getelementptr inbounds nuw i8, ptr %6, i64 32
  %18 = load i32, ptr %17, align 8, !tbaa !64
  %19 = ashr i32 %16, %18
  %20 = getelementptr inbounds nuw i8, ptr %6, i64 40
  %21 = load i32, ptr %20, align 8, !tbaa !67
  %22 = add nsw i32 %21, -1
  %.neg = shl nsw i32 -1, %22
  %23 = shl i32 65536, %22
  %24 = or disjoint i32 %23, 32768
  %25 = mul i32 %19, %2
  %26 = sub i32 0, %25
  %27 = sdiv i32 %26, %3
  %.neg71 = xor i32 %2, -1
  %28 = mul i32 %19, %.neg71
  %29 = sdiv i32 %28, %3
  %. = tail call i32 @llvm.smin.i32(i32 %29, i32 %15)
  %30 = icmp slt i32 %27, %.
  %31 = getelementptr inbounds nuw i8, ptr %1, i64 64
  %32 = icmp slt i32 %12, 0
  %or.cond = select i1 %30, i1 %32, i1 false
  br i1 %or.cond, label %.split.us.split.us, label %.split61.us

.split.us.split.us:                               ; preds = %4
  %33 = getelementptr inbounds nuw i8, ptr %6, i64 12
  %34 = load i32, ptr %33, align 4, !tbaa !40
  %35 = sext i32 %27 to i64
  %wide.trip.count = sext i32 %. to i64
  br label %.preheader.us.us

.preheader.us.us:                                 ; preds = %._crit_edge55.split.us.us.us, %.split.us.split.us
  %indvars.iv67 = phi i64 [ %indvars.iv.next68, %._crit_edge55.split.us.us.us ], [ 1, %.split.us.split.us ]
  %36 = getelementptr inbounds nuw [8 x ptr], ptr %1, i64 0, i64 %indvars.iv67
  %37 = load ptr, ptr %36, align 8, !tbaa !54
  %38 = getelementptr inbounds nuw [8 x i32], ptr %31, i64 0, i64 %indvars.iv67
  %39 = load i32, ptr %38, align 4, !tbaa !75
  %40 = sext i32 %39 to i64
  br label %.lr.ph.us.us.us

.lr.ph.us.us.us:                                  ; preds = %._crit_edge.us.us.us, %.preheader.us.us
  %indvars.iv = phi i64 [ %indvars.iv.next, %._crit_edge.us.us.us ], [ %35, %.preheader.us.us ]
  %41 = mul nsw i64 %indvars.iv, %40
  %42 = getelementptr inbounds i8, ptr %37, i64 %41
  br label %43

43:                                               ; preds = %43, %.lr.ph.us.us.us
  %.052.us.us.us = phi ptr [ %42, %.lr.ph.us.us.us ], [ %51, %43 ]
  %.04751.us.us.us = phi i32 [ 0, %.lr.ph.us.us.us ], [ %52, %43 ]
  %44 = load i16, ptr %.052.us.us.us, align 2, !tbaa !89
  %45 = zext i16 %44 to i32
  %46 = add nsw i32 %.neg, %45
  %47 = mul nsw i32 %46, %34
  %48 = add nsw i32 %24, %47
  %49 = lshr i32 %48, 16
  %50 = trunc nuw i32 %49 to i16
  store i16 %50, ptr %.052.us.us.us, align 2, !tbaa !89
  %51 = getelementptr inbounds nuw i8, ptr %.052.us.us.us, i64 2
  %52 = add nuw nsw i32 %.04751.us.us.us, 1
  %exitcond.not = icmp eq i32 %52, %13
  br i1 %exitcond.not, label %._crit_edge.us.us.us, label %43, !llvm.loop !97

._crit_edge.us.us.us:                             ; preds = %43
  %indvars.iv.next = add nsw i64 %indvars.iv, 1
  %exitcond66.not = icmp eq i64 %indvars.iv.next, %wide.trip.count
  br i1 %exitcond66.not, label %._crit_edge55.split.us.us.us, label %.lr.ph.us.us.us, !llvm.loop !98

._crit_edge55.split.us.us.us:                     ; preds = %._crit_edge.us.us.us
  %indvars.iv.next68 = add nuw nsw i64 %indvars.iv67, 1
  %exitcond70.not = icmp eq i64 %indvars.iv.next68, 3
  br i1 %exitcond70.not, label %.split61.us, label %.preheader.us.us, !llvm.loop !99

.split61.us:                                      ; preds = %._crit_edge55.split.us.us.us, %4
  ret i32 0
}